target datalayout = "e-m:e-p270:32:32-p271:32:32-p272:64:64-i64:64-i128:128-f80:128-n8:16:32:64-S128"
target triple = "x86_64-pc-linux-gnu"

%struct.lean_array_object = type { %struct.lean_object, i64, i64, [0 x ptr] }
%struct.lean_object = type { i32, i32 }

@l_Lean_Server_RefInfo_empty___closed__1 = internal global ptr null, align 8
@l_Lean_Server_combineIdents_useConstRepresentatives___closed__3 = internal global ptr null, align 8

; Function Attrs: alwaysinline nounwind uwtable
define internal void @lean_dec_ref(ptr noundef %0) #1 {
  %2 = alloca ptr, align 8
  store ptr %0, ptr %2, align 8, !tbaa !8
  %3 = load ptr, ptr %2, align 8, !tbaa !8
  %4 = getelementptr inbounds nuw %struct.lean_object, ptr %3, i32 0, i32 0
  %5 = load i32, ptr %4, align 4, !tbaa !15
  %6 = icmp sgt i32 %5, 1
  %7 = zext i1 %6 to i32
  %8 = sext i32 %7 to i64
  %9 = call i64 @llvm.expect.i64(i64 %8, i64 1)
  %10 = icmp ne i64 %9, 0
  br i1 %10, label %11, label %16

11:                                               ; preds = %1
  %12 = load ptr, ptr %2, align 8, !tbaa !8
  %13 = getelementptr inbounds nuw %struct.lean_object, ptr %12, i32 0, i32 0
  %14 = load i32, ptr %13, align 4, !tbaa !15
  %15 = add i32 %14, -1
  store i32 %15, ptr %13, align 4, !tbaa !15
  br label %24

16:                                               ; preds = %1
  %17 = load ptr, ptr %2, align 8, !tbaa !8
  %18 = getelementptr inbounds nuw %struct.lean_object, ptr %17, i32 0, i32 0
  %19 = load i32, ptr %18, align 4, !tbaa !15
  %20 = icmp ne i32 %19, 0
  br i1 %20, label %21, label %23

21:                                               ; preds = %16
  %22 = load ptr, ptr %2, align 8, !tbaa !8
  call void @lean_dec_ref_cold(ptr noundef %22)
  br label %23

23:                                               ; preds = %21, %16
  br label %24

24:                                               ; preds = %23, %11
  ret void
}

; Function Attrs: alwaysinline nounwind uwtable
define internal zeroext i1 @lean_is_scalar(ptr noundef %0) #1 {
  %2 = alloca ptr, align 8
  store ptr %0, ptr %2, align 8, !tbaa !8
  %3 = load ptr, ptr %2, align 8, !tbaa !8
  %4 = ptrtoint ptr %3 to i64
  %5 = and i64 %4, 1
  %6 = icmp eq i64 %5, 1
  ret i1 %6
}

; Function Attrs: inlinehint nounwind uwtable
define internal ptr @lean_to_array(ptr noundef %0) #0 {
  %2 = alloca ptr, align 8
  store ptr %0, ptr %2, align 8, !tbaa !8
  %3 = load ptr, ptr %2, align 8, !tbaa !8
  ret ptr %3
}

; Function Attrs: alwaysinline nounwind uwtable
define internal void @lean_dec(ptr noundef %0) #1 {
  %2 = alloca ptr, align 8
  store ptr %0, ptr %2, align 8, !tbaa !8
  %3 = load ptr, ptr %2, align 8, !tbaa !8
  %4 = call zeroext i1 @lean_is_scalar(ptr noundef %3)
  br i1 %4, label %7, label %5

5:                                                ; preds = %1
  %6 = load ptr, ptr %2, align 8, !tbaa !8
  call void @lean_dec_ref(ptr noundef %6)
  br label %7

7:                                                ; preds = %5, %1
  ret void
}

; Function Attrs: inlinehint nounwind uwtable
define internal i64 @lean_array_size(ptr noundef %0) #0 {
  %2 = alloca ptr, align 8
  store ptr %0, ptr %2, align 8, !tbaa !8
  %3 = load ptr, ptr %2, align 8, !tbaa !8
  %4 = call ptr @lean_to_array(ptr noundef %3)
  %5 = getelementptr inbounds nuw %struct.lean_array_object, ptr %4, i32 0, i32 1
  %6 = load i64, ptr %5, align 8, !tbaa !4
  ret i64 %6
}

; Function Attrs: inlinehint nounwind uwtable
define internal ptr @lean_box(i64 noundef %0) #0 {
  %2 = alloca i64, align 8
  store i64 %0, ptr %2, align 8, !tbaa !4
  %3 = load i64, ptr %2, align 8, !tbaa !4
  %4 = shl i64 %3, 1
  %5 = or i64 %4, 1
  %6 = inttoptr i64 %5 to ptr
  ret ptr %6
}

; Function Attrs: nounwind uwtable
define ptr @l_Lean_Server_combineIdents(ptr noundef %0, ptr noundef %1) #2 {
  %3 = alloca ptr, align 8
  %4 = alloca ptr, align 8
  %5 = alloca ptr, align 8
  %6 = alloca ptr, align 8
  %7 = alloca i64, align 8
  %8 = alloca i64, align 8
  %9 = alloca ptr, align 8
  %10 = alloca ptr, align 8
  %11 = alloca ptr, align 8
  %12 = alloca ptr, align 8
  %13 = alloca ptr, align 8
  %14 = alloca ptr, align 8
  store ptr %0, ptr %3, align 8, !tbaa !8
  store ptr %1, ptr %4, align 8, !tbaa !8
  br label %15

15:                                               ; preds = %2
  call void @llvm.lifetime.start.p0(i64 8, ptr %5) #7
  call void @llvm.lifetime.start.p0(i64 8, ptr %6) #7
  call void @llvm.lifetime.start.p0(i64 8, ptr %7) #7
  call void @llvm.lifetime.start.p0(i64 8, ptr %8) #7
  call void @llvm.lifetime.start.p0(i64 8, ptr %9) #7
  call void @llvm.lifetime.start.p0(i64 8, ptr %10) #7
  call void @llvm.lifetime.start.p0(i64 8, ptr %11) #7
  call void @llvm.lifetime.start.p0(i64 8, ptr %12) #7
  call void @llvm.lifetime.start.p0(i64 8, ptr %13) #7
  call void @llvm.lifetime.start.p0(i64 8, ptr %14) #7
  %16 = call ptr @lean_box(i64 noundef 0)
  store ptr %16, ptr %5, align 8, !tbaa !8
  %17 = call ptr @lean_box(i64 noundef 0)
  store ptr %17, ptr %6, align 8, !tbaa !8
  %18 = load ptr, ptr %4, align 8, !tbaa !8
  %19 = call i64 @lean_array_size(ptr noundef %18)
  store i64 %19, ptr %7, align 8, !tbaa !4
  store i64 0, ptr %8, align 8, !tbaa !4
  %20 = load ptr, ptr @l_Lean_Server_combineIdents_useConstRepresentatives___closed__3, align 8, !tbaa !8
  store ptr %20, ptr %9, align 8, !tbaa !8
  %21 = load ptr, ptr %4, align 8, !tbaa !8
  %22 = load ptr, ptr %5, align 8, !tbaa !8
  %23 = load ptr, ptr %6, align 8, !tbaa !8
  %24 = load ptr, ptr %4, align 8, !tbaa !8
  %25 = load i64, ptr %7, align 8, !tbaa !4
  %26 = load i64, ptr %8, align 8, !tbaa !4
  %27 = load ptr, ptr %9, align 8, !tbaa !8
  %28 = call ptr @l_Array_forIn_x27Unsafe_loop___at_Lean_Server_combineIdents___spec__6(ptr noundef %21, ptr noundef %22, ptr noundef %23, ptr noundef %24, i64 noundef %25, i64 noundef %26, ptr noundef %27)
  store ptr %28, ptr %10, align 8, !tbaa !8
  %29 = load ptr, ptr %3, align 8, !tbaa !8
  %30 = load ptr, ptr %4, align 8, !tbaa !8
  %31 = load ptr, ptr %10, align 8, !tbaa !8
  %32 = call ptr @l_Lean_Server_combineIdents_buildIdMap(ptr noundef %29, ptr noundef %30, ptr noundef %31)
  store ptr %32, ptr %11, align 8, !tbaa !8
  %33 = load ptr, ptr %10, align 8, !tbaa !8
  call void @lean_dec(ptr noundef %33)
  %34 = load ptr, ptr %11, align 8, !tbaa !8
  %35 = call ptr @l_Lean_Server_combineIdents_useConstRepresentatives(ptr noundef %34)
  store ptr %35, ptr %12, align 8, !tbaa !8
  %36 = load ptr, ptr %11, align 8, !tbaa !8
  call void @lean_dec(ptr noundef %36)
  %37 = load ptr, ptr @l_Lean_Server_RefInfo_empty___closed__1, align 8, !tbaa !8
  store ptr %37, ptr %13, align 8, !tbaa !8
  %38 = load ptr, ptr %4, align 8, !tbaa !8
  %39 = load ptr, ptr %6, align 8, !tbaa !8
  %40 = load ptr, ptr %12, align 8, !tbaa !8
  %41 = load ptr, ptr %4, align 8, !tbaa !8
  %42 = load i64, ptr %7, align 8, !tbaa !4
  %43 = load i64, ptr %8, align 8, !tbaa !4
  %44 = load ptr, ptr %13, align 8, !tbaa !8
  %45 = call ptr @l_Array_forIn_x27Unsafe_loop___at_Lean_Server_combineIdents___spec__7(ptr noundef %38, ptr noundef %39, ptr noundef %40, ptr noundef %41, i64 noundef %42, i64 noundef %43, ptr noundef %44)
  store ptr %45, ptr %14, align 8, !tbaa !8
  %46 = load ptr, ptr %12, align 8, !tbaa !8
  call void @lean_dec(ptr noundef %46)
  %47 = load ptr, ptr %14, align 8, !tbaa !8
  call void @llvm.lifetime.end.p0(i64 8, ptr %14) #7
  call void @llvm.lifetime.end.p0(i64 8, ptr %13) #7
  call void @llvm.lifetime.end.p0(i64 8, ptr %12) #7
  call void @llvm.lifetime.end.p0(i64 8, ptr %11) #7
  call void @llvm.lifetime.end.p0(i64 8, ptr %10) #7
  call void @llvm.lifetime.end.p0(i64 8, ptr %9) #7
  call void @llvm.lifetime.end.p0(i64 8, ptr %8) #7
  call void @llvm.lifetime.end.p0(i64 8, ptr %7) #7
  call void @llvm.lifetime.end.p0(i64 8, ptr %6) #7
  call void @llvm.lifetime.end.p0(i64 8, ptr %5) #7
  ret ptr %47
}