; Function Attrs: nounwind uwtable
define ptr @l_Lean_Server_combineIdents(ptr noundef readonly captures(none) %0, ptr noundef readonly captures(none) %1) local_unnamed_addr #0 {
  %3 = getelementptr i8, ptr %1, i64 8
  %.val = load i64, ptr %3, align 8, !tbaa !13
  %4 = load ptr, ptr @l_Lean_Server_combineIdents_useConstRepresentatives___closed__3, align 8, !tbaa !4
  %5 = tail call ptr @l_Array_forIn_x27Unsafe_loop___at_Lean_Server_combineIdents___spec__6(ptr poison, ptr noundef nonnull inttoptr (i64 1 to ptr), ptr nonnull poison, ptr noundef %1, i64 noundef %.val, i64 noundef 0, ptr noundef %4)
  %6 = tail call ptr @l_Lean_Server_combineIdents_buildIdMap(ptr noundef %0, ptr noundef %1, ptr noundef %5)
  %7 = ptrtoint ptr %5 to i64
  %8 = and i64 %7, 1
  %.not = icmp eq i64 %8, 0
  br i1 %.not, label %9, label %lean_dec.exit23

9:                                                ; preds = %2
  %10 = load i32, ptr %5, align 4, !tbaa !8
  %11 = icmp sgt i32 %10, 1
  br i1 %11, label %12, label %14, !prof !11

12:                                               ; preds = %9
  %13 = add nsw i32 %10, -1
  store i32 %13, ptr %5, align 4, !tbaa !8
  br label %lean_dec.exit23

14:                                               ; preds = %9
  %.not.i = icmp eq i32 %10, 0
  br i1 %.not.i, label %lean_dec.exit23, label %15

15:                                               ; preds = %14
  tail call void @lean_dec_ref_cold(ptr noundef nonnull %5) #8
  br label %lean_dec.exit23

lean_dec.exit23:                                  ; preds = %15, %14, %12, %2
  %16 = tail call ptr @l_Lean_Server_combineIdents_useConstRepresentatives(ptr noundef %6)
  %17 = ptrtoint ptr %6 to i64
  %18 = and i64 %17, 1
  %.not28 = icmp eq i64 %18, 0
  br i1 %.not28, label %19, label %lean_dec.exit22

19:                                               ; preds = %lean_dec.exit23
  %20 = load i32, ptr %6, align 4, !tbaa !8
  %21 = icmp sgt i32 %20, 1
  br i1 %21, label %22, label %24, !prof !11

22:                                               ; preds = %19
  %23 = add nsw i32 %20, -1
  store i32 %23, ptr %6, align 4, !tbaa !8
  br label %lean_dec.exit22

24:                                               ; preds = %19
  %.not.i24 = icmp eq i32 %20, 0
  br i1 %.not.i24, label %lean_dec.exit22, label %25

25:                                               ; preds = %24
  tail call void @lean_dec_ref_cold(ptr noundef nonnull %6) #8
  br label %lean_dec.exit22

lean_dec.exit22:                                  ; preds = %25, %24, %22, %lean_dec.exit23
  %26 = load ptr, ptr @l_Lean_Server_RefInfo_empty___closed__1, align 8, !tbaa !4
  %27 = tail call ptr @l_Array_forIn_x27Unsafe_loop___at_Lean_Server_combineIdents___spec__7(ptr nonnull poison, ptr nonnull poison, ptr noundef %16, ptr noundef nonnull %1, i64 noundef %.val, i64 noundef 0, ptr noundef %26)
  %28 = ptrtoint ptr %16 to i64
  %29 = and i64 %28, 1
  %.not29 = icmp eq i64 %29, 0
  br i1 %.not29, label %30, label %lean_dec.exit

30:                                               ; preds = %lean_dec.exit22
  %31 = load i32, ptr %16, align 4, !tbaa !8
  %32 = icmp sgt i32 %31, 1
  br i1 %32, label %33, label %35, !prof !11

33:                                               ; preds = %30
  %34 = add nsw i32 %31, -1
  store i32 %34, ptr %16, align 4, !tbaa !8
  br label %lean_dec.exit

35:                                               ; preds = %30
  %.not.i26 = icmp eq i32 %31, 0
  br i1 %.not.i26, label %lean_dec.exit, label %36

36:                                               ; preds = %35
  tail call void @lean_dec_ref_cold(ptr noundef nonnull %16) #8
  br label %lean_dec.exit

lean_dec.exit:                                    ; preds = %36, %35, %33, %lean_dec.exit22
  ret ptr %27
}